target datalayout = "e-m:e-p270:32:32-p271:32:32-p272:64:64-i64:64-i128:128-f80:128-n8:16:32:64-S128"
target triple = "x86_64-pc-linux-gnu"

%class.PacketFormatGroupBox = type { %class.QGroupBox, ptr }
%class.QGroupBox = type { %class.QWidget }
%class.QWidget = type { %class.QObject, %class.QPaintDevice.base, ptr }
%class.QObject = type { ptr, %class.QScopedPointer }
%class.QScopedPointer = type { ptr }
%class.QPaintDevice.base = type <{ ptr, i16 }>
%class.Ui_PacketFormatGroupBox = type { ptr, ptr, ptr, ptr, ptr, ptr, ptr, ptr, ptr, ptr }

; Function Attrs: mustprogress null_pointer_is_valid sspstrong uwtable
define noundef i32 @_ZN20PacketFormatGroupBox17getHexdumpOptionsEv(ptr noundef align 8 dereferenceable_or_null(48) %0) #0 align 2 {
  %2 = alloca ptr, align 8
  store ptr %0, ptr %2, align 8
  %3 = load ptr, ptr %2, align 8
  %4 = getelementptr inbounds nuw %class.PacketFormatGroupBox, ptr %3, i32 0, i32 1
  %5 = load ptr, ptr %4, align 8
  %6 = getelementptr inbounds nuw %class.Ui_PacketFormatGroupBox, ptr %5, i32 0, i32 8
  %7 = load ptr, ptr %6, align 8
  %8 = call noundef zeroext i1 @_ZNK15QAbstractButton9isCheckedEv(ptr noundef align 8 dereferenceable_or_null(40) %7)
  %9 = select i1 %8, i32 0, i32 4
  %10 = getelementptr inbounds nuw %class.PacketFormatGroupBox, ptr %3, i32 0, i32 1
  %11 = load ptr, ptr %10, align 8
  %12 = getelementptr inbounds nuw %class.Ui_PacketFormatGroupBox, ptr %11, i32 0, i32 9
  %13 = load ptr, ptr %12, align 8
  %14 = call noundef zeroext i1 @_ZNK15QAbstractButton9isCheckedEv(ptr noundef align 8 dereferenceable_or_null(40) %13)
  %15 = select i1 %14, i32 8, i32 0
  %16 = or i32 %9, %15
  ret i32 %16
}