; Function Attrs: mustprogress null_pointer_is_valid sspstrong uwtable
define noundef range(i32 0, 16) i32 @_ZN20PacketFormatGroupBox17getHexdumpOptionsEv(ptr noundef readonly align 8 captures(none) dereferenceable_or_null(48) %0) local_unnamed_addr #0 align 2 {
  %2 = getelementptr inbounds nuw i8, ptr %0, i64 40
  %3 = load ptr, ptr %2, align 8
  %4 = getelementptr inbounds nuw i8, ptr %3, i64 64
  %5 = load ptr, ptr %4, align 8
  %6 = tail call noundef zeroext i1 @_ZNK15QAbstractButton9isCheckedEv(ptr noundef align 8 dereferenceable_or_null(40) %5)
  %7 = select i1 %6, i32 0, i32 4
  %8 = load ptr, ptr %2, align 8
  %9 = getelementptr inbounds nuw i8, ptr %8, i64 72
  %10 = load ptr, ptr %9, align 8
  %11 = tail call noundef zeroext i1 @_ZNK15QAbstractButton9isCheckedEv(ptr noundef align 8 dereferenceable_or_null(40) %10)
  %12 = select i1 %11, i32 8, i32 0
  %13 = or disjoint i32 %12, %7
  ret i32 %13
}